target datalayout = "e-m:e-p270:32:32-p271:32:32-p272:64:64-i64:64-i128:128-f80:128-n8:16:32:64-S128"
target triple = "x86_64-pc-linux-gnu"

%struct.cli_ctx_tag = type { ptr, ptr, ptr, ptr, ptr, ptr, ptr, i64, ptr, i32, i32, ptr, i32, i32, ptr, [16 x i8], ptr, ptr, ptr, ptr, ptr, ptr, %struct.timeval, i8, i8 }
%struct.timeval = type { i64, i64 }

@.str.43 = private unnamed_addr constant [21 x i8] c"Detected.By.Callback\00", align 1
@.str.68 = private unnamed_addr constant [53 x i8] c"dispatch_prescan_callback: file allowed by callback\0A\00", align 1
@.str.69 = private unnamed_addr constant [53 x i8] c"dispatch_prescan_callback: file blocked by callback\0A\00", align 1
@.str.70 = private unnamed_addr constant [67 x i8] c"dispatch_prescan_callback: ignoring bad return code from callback\0A\00", align 1

; Function Attrs: nounwind uwtable
define internal void @perf_stop(ptr noundef %0, i32 noundef %1) #0 {
  %3 = alloca ptr, align 8
  %4 = alloca i32, align 4
  store ptr %0, ptr %3, align 8
  store i32 %1, ptr %4, align 4
  %5 = load ptr, ptr %3, align 8
  %6 = getelementptr inbounds %struct.cli_ctx_tag, ptr %5, i32 0, i32 19
  %7 = load ptr, ptr %6, align 8
  %8 = load i32, ptr %4, align 4
  call void @cli_event_time_stop(ptr noundef %7, i32 noundef %8)
  ret void
}

; Function Attrs: nounwind uwtable
define internal void @perf_start(ptr noundef %0, i32 noundef %1) #0 {
  %3 = alloca ptr, align 8
  %4 = alloca i32, align 4
  store ptr %0, ptr %3, align 8
  store i32 %1, ptr %4, align 4
  %5 = load ptr, ptr %3, align 8
  %6 = getelementptr inbounds %struct.cli_ctx_tag, ptr %5, i32 0, i32 19
  %7 = load ptr, ptr %6, align 8
  %8 = load i32, ptr %4, align 4
  call void @cli_event_time_start(ptr noundef %7, i32 noundef %8)
  ret void
}

; Function Attrs: nounwind uwtable
define internal i32 @dispatch_prescan_callback(ptr noundef %0, ptr noundef %1, ptr noundef %2) #0 {
  %4 = alloca ptr, align 8
  %5 = alloca ptr, align 8
  %6 = alloca ptr, align 8
  %7 = alloca i32, align 4
  store ptr %0, ptr %4, align 8
  store ptr %1, ptr %5, align 8
  store ptr %2, ptr %6, align 8
  store i32 0, ptr %7, align 4
  %8 = load ptr, ptr %4, align 8
  %9 = icmp ne ptr %8, null
  br i1 %9, label %10, label %31

10:                                               ; preds = %3
  %11 = load ptr, ptr %5, align 8
  call void @perf_start(ptr noundef %11, i32 noundef 2)
  %12 = load ptr, ptr %4, align 8
  %13 = load ptr, ptr %5, align 8
  %14 = getelementptr inbounds %struct.cli_ctx_tag, ptr %13, i32 0, i32 14
  %15 = load ptr, ptr %14, align 8
  %16 = call i32 @fmap_fd(ptr noundef %15)
  %17 = load ptr, ptr %6, align 8
  %18 = load ptr, ptr %5, align 8
  %19 = getelementptr inbounds %struct.cli_ctx_tag, ptr %18, i32 0, i32 18
  %20 = load ptr, ptr %19, align 8
  %21 = call i32 %12(i32 noundef %16, ptr noundef %17, ptr noundef %20)
  store i32 %21, ptr %7, align 4
  %22 = load ptr, ptr %5, align 8
  call void @perf_stop(ptr noundef %22, i32 noundef 2)
  %23 = load i32, ptr %7, align 4
  switch i32 %23, label %29 [
    i32 22, label %24
    i32 1, label %25
    i32 0, label %28
  ]

24:                                               ; preds = %10
  call void (ptr, ...) @cli_dbgmsg(ptr noundef @.str.68)
  store i32 33, ptr %7, align 4
  br label %30

25:                                               ; preds = %10
  call void (ptr, ...) @cli_dbgmsg(ptr noundef @.str.69)
  %26 = load ptr, ptr %5, align 8
  %27 = call i32 @cli_append_virus(ptr noundef %26, ptr noundef @.str.43)
  store i32 %27, ptr %7, align 4
  br label %30

28:                                               ; preds = %10
  br label %30

29:                                               ; preds = %10
  store i32 0, ptr %7, align 4
  call void (ptr, ...) @cli_warnmsg(ptr noundef @.str.70)
  br label %30

30:                                               ; preds = %29, %28, %25, %24
  br label %31

31:                                               ; preds = %30, %3
  %32 = load i32, ptr %7, align 4
  ret i32 %32
}