; Function Attrs: nounwind uwtable
define internal fastcc i32 @dispatch_prescan_callback(ptr noundef readonly %0, ptr noundef %1, ptr noundef %2) unnamed_addr #0 {
  %.not = icmp eq ptr %0, null
  br i1 %.not, label %16, label %4

4:                                                ; preds = %3
  %5 = getelementptr i8, ptr %1, i64 144
  %.val = load ptr, ptr %5, align 8
  tail call void @cli_event_time_start(ptr noundef %.val, i32 noundef 2) #16
  %6 = getelementptr inbounds nuw i8, ptr %1, i64 96
  %7 = load ptr, ptr %6, align 8
  %8 = tail call i32 @fmap_fd(ptr noundef %7) #16
  %9 = getelementptr inbounds nuw i8, ptr %1, i64 136
  %10 = load ptr, ptr %9, align 8
  %11 = tail call i32 %0(i32 noundef %8, ptr noundef %2, ptr noundef %10) #16
  %.val11 = load ptr, ptr %5, align 8
  tail call void @cli_event_time_stop(ptr noundef %.val11, i32 noundef 2) #16
  switch i32 %11, label %15 [
    i32 22, label %12
    i32 1, label %13
    i32 0, label %16
  ]

12:                                               ; preds = %4
  tail call void (ptr, ...) @cli_dbgmsg(ptr noundef nonnull @.str.68) #16
  br label %16

13:                                               ; preds = %4
  tail call void (ptr, ...) @cli_dbgmsg(ptr noundef nonnull @.str.69) #16
  %14 = tail call i32 @cli_append_virus(ptr noundef nonnull %1, ptr noundef nonnull @.str.43) #16
  br label %16

15:                                               ; preds = %4
  tail call void (ptr, ...) @cli_warnmsg(ptr noundef nonnull @.str.70) #16
  br label %16

16:                                               ; preds = %12, %13, %15, %4, %3
  %.0 = phi i32 [ 0, %15 ], [ %11, %4 ], [ %14, %13 ], [ 33, %12 ], [ 0, %3 ]
  ret i32 %.0
}